(lp0
ccopy_reg
_reconstructor
p1
(ccontas
contaReg
p2
c__builtin__
tuple
p3
(I11
S'aaa'
p4
S'1'
p5
S'bpi'
p6
S'10-10-2010'
p7
S'500'
p8
tp9
tp10
Rp11
ag1
(g2
g3
(I12
S'ttt'
p12
S'prazo'
p13
S'bcp'
p14
S'2-10-2013'
p15
S'200'
p16
tp17
tp18
Rp19
a.