(lp0
ccopy_reg
_reconstructor
p1
(ccontas
contaReg
p2
c__builtin__
tuple
p3
(I190
S'AAA'
p4
S'Prazo'
p5
S'BCP'
p6
S'10/10/2001'
p7
I-600
tp8
tp9
Rp10
ag1
(g2
g3
(I100
S'PPPP'
p11
S'ORDEM'
p12
S'BPI'
p13
S'1/3/2010'
p14
I1600
tp15
tp16
Rp17
a.